target datalayout = "e-m:e-p270:32:32-p271:32:32-p272:64:64-i64:64-i128:128-f80:128-n8:16:32:64-S128"
target triple = "x86_64-pc-linux-gnu"

%"class.clang::SourceRange" = type { %"class.clang::SourceLocation", %"class.clang::SourceLocation" }
%"class.clang::SourceLocation" = type { i32 }
%"class.(anonymous namespace)::RewritesApplicator" = type { %"class.clang::arcmt::TransformActions::RewriteReceiver", ptr, ptr }
%"class.clang::arcmt::TransformActions::RewriteReceiver" = type { ptr }
%"class.clang::CharSourceRange" = type <{ %"class.clang::SourceRange", i8, [3 x i8] }>
%"struct.clang::Rewriter::RewriteOptions" = type { i8, i8, i8 }

; Function Attrs: mustprogress nounwind uwtable
define linkonce_odr hidden i32 @_ZNK5clang11SourceRange8getBeginEv(ptr noundef nonnull align 4 dereferenceable(8) %0) #0 comdat align 2 {
  %2 = alloca %"class.clang::SourceLocation", align 4
  %3 = alloca ptr, align 8
  store ptr %0, ptr %3, align 8
  %4 = load ptr, ptr %3, align 8
  %5 = getelementptr inbounds nuw %"class.clang::SourceRange", ptr %4, i32 0, i32 0
  call void @llvm.memcpy.p0.p0.i64(ptr align 4 %2, ptr align 4 %5, i64 4, i1 false)
  %6 = getelementptr inbounds nuw %"class.clang::SourceLocation", ptr %2, i32 0, i32 0
  %7 = load i32, ptr %6, align 4
  ret i32 %7
}

; Function Attrs: mustprogress nounwind uwtable
define linkonce_odr hidden i32 @_ZNK5clang15CharSourceRange8getBeginEv(ptr noundef nonnull align 4 dereferenceable(9) %0) #0 comdat align 2 {
  %2 = alloca %"class.clang::SourceLocation", align 4
  %3 = alloca ptr, align 8
  store ptr %0, ptr %3, align 8
  %4 = load ptr, ptr %3, align 8
  %5 = getelementptr inbounds nuw %"class.clang::CharSourceRange", ptr %4, i32 0, i32 0
  %6 = call i32 @_ZNK5clang11SourceRange8getBeginEv(ptr noundef nonnull align 4 dereferenceable(8) %5)
  %7 = getelementptr inbounds nuw %"class.clang::SourceLocation", ptr %2, i32 0, i32 0
  store i32 %6, ptr %7, align 4
  %8 = getelementptr inbounds nuw %"class.clang::SourceLocation", ptr %2, i32 0, i32 0
  %9 = load i32, ptr %8, align 4
  ret i32 %9
}

; Function Attrs: mustprogress nounwind uwtable
define linkonce_odr hidden noundef zeroext i1 @_ZN5clang8Rewriter10RemoveTextENS_15CharSourceRangeENS0_14RewriteOptionsE(ptr noundef nonnull align 8 dereferenceable(64) %0, i64 %1, i8 %2, i24 %3) #0 comdat align 2 {
  %5 = alloca %"class.clang::CharSourceRange", align 4
  %6 = alloca { i64, i8 }, align 4
  %7 = alloca %"struct.clang::Rewriter::RewriteOptions", align 1
  %8 = alloca ptr, align 8
  %9 = alloca %"class.clang::SourceLocation", align 4
  %10 = alloca %"struct.clang::Rewriter::RewriteOptions", align 1
  %11 = alloca i24, align 4
  %12 = alloca %"struct.clang::Rewriter::RewriteOptions", align 1
  %13 = alloca i24, align 4
  %14 = getelementptr inbounds nuw { i64, i8 }, ptr %6, i32 0, i32 0
  store i64 %1, ptr %14, align 4
  %15 = getelementptr inbounds nuw { i64, i8 }, ptr %6, i32 0, i32 1
  store i8 %2, ptr %15, align 4
  call void @llvm.memcpy.p0.p0.i64(ptr align 4 %5, ptr align 4 %6, i64 12, i1 false)
  store i24 %3, ptr %7, align 1
  store ptr %0, ptr %8, align 8
  %16 = load ptr, ptr %8, align 8
  %17 = call i32 @_ZNK5clang15CharSourceRange8getBeginEv(ptr noundef nonnull align 4 dereferenceable(9) %5)
  %18 = getelementptr inbounds nuw %"class.clang::SourceLocation", ptr %9, i32 0, i32 0
  store i32 %17, ptr %18, align 4
  call void @llvm.memcpy.p0.p0.i64(ptr align 1 %10, ptr align 1 %7, i64 3, i1 false)
  call void @llvm.memcpy.p0.p0.i64(ptr align 4 %11, ptr align 1 %10, i64 3, i1 false)
  %19 = load i24, ptr %11, align 4
  %20 = call noundef i32 @_ZNK5clang8Rewriter12getRangeSizeERKNS_15CharSourceRangeENS0_14RewriteOptionsE(ptr noundef nonnull align 8 dereferenceable(64) %16, ptr noundef nonnull align 4 dereferenceable(9) %5, i24 %19)
  call void @llvm.memcpy.p0.p0.i64(ptr align 1 %12, ptr align 1 %7, i64 3, i1 false)
  %21 = getelementptr inbounds nuw %"class.clang::SourceLocation", ptr %9, i32 0, i32 0
  %22 = load i32, ptr %21, align 4
  call void @llvm.memcpy.p0.p0.i64(ptr align 4 %13, ptr align 1 %12, i64 3, i1 false)
  %23 = load i24, ptr %13, align 4
  %24 = call noundef zeroext i1 @_ZN5clang8Rewriter10RemoveTextENS_14SourceLocationEjNS0_14RewriteOptionsE(ptr noundef nonnull align 8 dereferenceable(64) %16, i32 %22, i32 noundef %20, i24 %23)
  ret i1 %24
}

; Function Attrs: mustprogress nounwind uwtable
define linkonce_odr hidden void @_ZN5clang8Rewriter14RewriteOptionsC2Ev(ptr noundef nonnull align 1 dereferenceable(3) %0) unnamed_addr #0 comdat align 2 {
  %2 = alloca ptr, align 8
  store ptr %0, ptr %2, align 8
  %3 = load ptr, ptr %2, align 8
  %4 = getelementptr inbounds nuw %"struct.clang::Rewriter::RewriteOptions", ptr %3, i32 0, i32 0
  store i8 1, ptr %4, align 1
  %5 = getelementptr inbounds nuw %"struct.clang::Rewriter::RewriteOptions", ptr %3, i32 0, i32 1
  store i8 1, ptr %5, align 1
  %6 = getelementptr inbounds nuw %"struct.clang::Rewriter::RewriteOptions", ptr %3, i32 0, i32 2
  store i8 0, ptr %6, align 1
  ret void
}

; Function Attrs: mustprogress nounwind uwtable
define internal void @_ZN12_GLOBAL__N_118RewritesApplicator6removeEN5clang15CharSourceRangeE(ptr noundef nonnull align 8 dereferenceable(24) %0, i64 %1, i8 %2) unnamed_addr #0 align 2 {
  %4 = alloca %"class.clang::CharSourceRange", align 4
  %5 = alloca { i64, i8 }, align 4
  %6 = alloca ptr, align 8
  %7 = alloca %"struct.clang::Rewriter::RewriteOptions", align 1
  %8 = alloca i8, align 1
  %9 = alloca %"class.clang::CharSourceRange", align 4
  %10 = alloca %"struct.clang::Rewriter::RewriteOptions", align 1
  %11 = alloca { i64, i8 }, align 4
  %12 = alloca i24, align 4
  %13 = alloca %"class.clang::CharSourceRange", align 4
  %14 = alloca { i64, i8 }, align 4
  %15 = getelementptr inbounds nuw { i64, i8 }, ptr %5, i32 0, i32 0
  store i64 %1, ptr %15, align 4
  %16 = getelementptr inbounds nuw { i64, i8 }, ptr %5, i32 0, i32 1
  store i8 %2, ptr %16, align 4
  call void @llvm.memcpy.p0.p0.i64(ptr align 4 %4, ptr align 4 %5, i64 12, i1 false)
  store ptr %0, ptr %6, align 8
  %17 = load ptr, ptr %6, align 8
  call void @_ZN5clang8Rewriter14RewriteOptionsC2Ev(ptr noundef nonnull align 1 dereferenceable(3) %7)
  %18 = getelementptr inbounds nuw %"struct.clang::Rewriter::RewriteOptions", ptr %7, i32 0, i32 0
  store i8 0, ptr %18, align 1
  %19 = getelementptr inbounds nuw %"struct.clang::Rewriter::RewriteOptions", ptr %7, i32 0, i32 1
  store i8 0, ptr %19, align 1
  %20 = getelementptr inbounds nuw %"struct.clang::Rewriter::RewriteOptions", ptr %7, i32 0, i32 2
  store i8 1, ptr %20, align 1
  %21 = getelementptr inbounds nuw %"class.(anonymous namespace)::RewritesApplicator", ptr %17, i32 0, i32 1
  %22 = load ptr, ptr %21, align 8
  call void @llvm.memcpy.p0.p0.i64(ptr align 4 %9, ptr align 4 %4, i64 12, i1 false)
  call void @llvm.memcpy.p0.p0.i64(ptr align 1 %10, ptr align 1 %7, i64 3, i1 false)
  call void @llvm.memcpy.p0.p0.i64(ptr align 4 %11, ptr align 4 %9, i64 12, i1 false)
  %23 = getelementptr inbounds nuw { i64, i8 }, ptr %11, i32 0, i32 0
  %24 = load i64, ptr %23, align 4
  %25 = getelementptr inbounds nuw { i64, i8 }, ptr %11, i32 0, i32 1
  %26 = load i8, ptr %25, align 4
  call void @llvm.memcpy.p0.p0.i64(ptr align 4 %12, ptr align 1 %10, i64 3, i1 false)
  %27 = load i24, ptr %12, align 4
  %28 = call noundef zeroext i1 @_ZN5clang8Rewriter10RemoveTextENS_15CharSourceRangeENS0_14RewriteOptionsE(ptr noundef nonnull align 8 dereferenceable(64) %22, i64 %24, i8 %26, i24 %27)
  %29 = zext i1 %28 to i8
  store i8 %29, ptr %8, align 1
  %30 = load i8, ptr %8, align 1
  %31 = trunc i8 %30 to i1
  br i1 %31, label %46, label %32

32:                                               ; preds = %3
  %33 = getelementptr inbounds nuw %"class.(anonymous namespace)::RewritesApplicator", ptr %17, i32 0, i32 2
  %34 = load ptr, ptr %33, align 8
  %35 = icmp ne ptr %34, null
  br i1 %35, label %36, label %46

36:                                               ; preds = %32
  %37 = getelementptr inbounds nuw %"class.(anonymous namespace)::RewritesApplicator", ptr %17, i32 0, i32 2
  %38 = load ptr, ptr %37, align 8
  call void @llvm.memcpy.p0.p0.i64(ptr align 4 %13, ptr align 4 %4, i64 12, i1 false)
  call void @llvm.memcpy.p0.p0.i64(ptr align 4 %14, ptr align 4 %13, i64 12, i1 false)
  %39 = getelementptr inbounds nuw { i64, i8 }, ptr %14, i32 0, i32 0
  %40 = load i64, ptr %39, align 4
  %41 = getelementptr inbounds nuw { i64, i8 }, ptr %14, i32 0, i32 1
  %42 = load i8, ptr %41, align 4
  %43 = load ptr, ptr %38, align 8
  %44 = getelementptr inbounds ptr, ptr %43, i64 5
  %45 = load ptr, ptr %44, align 8
  call void %45(ptr noundef nonnull align 8 dereferenceable(8) %38, i64 %40, i8 %42)
  br label %46

46:                                               ; preds = %36, %32, %3
  ret void
}