; Function Attrs: mustprogress nounwind uwtable
define internal void @_ZN12_GLOBAL__N_118RewritesApplicator6removeEN5clang15CharSourceRangeE(ptr nocapture noundef nonnull readonly align 8 dereferenceable(24) %0, i64 %1, i8 %2) unnamed_addr #0 align 2 {
  %4 = alloca %"class.clang::CharSourceRange", align 8
  %5 = getelementptr inbounds nuw i8, ptr %0, i64 8
  %6 = load ptr, ptr %5, align 8
  call void @llvm.lifetime.start.p0(i64 12, ptr nonnull %4)
  store i64 %1, ptr %4, align 8
  %.sroa.2.0..sroa_idx.i = getelementptr inbounds i8, ptr %4, i64 8
  store i8 %2, ptr %.sroa.2.0..sroa_idx.i, align 8
  %7 = trunc i64 %1 to i32
  %8 = call noundef i32 @_ZNK5clang8Rewriter12getRangeSizeERKNS_15CharSourceRangeENS0_14RewriteOptionsE(ptr noundef nonnull align 8 dereferenceable(64) %6, ptr noundef nonnull align 4 dereferenceable(9) %4, i24 65536) #16
  %9 = call noundef zeroext i1 @_ZN5clang8Rewriter10RemoveTextENS_14SourceLocationEjNS0_14RewriteOptionsE(ptr noundef nonnull align 8 dereferenceable(64) %6, i32 %7, i32 noundef %8, i24 65536) #16
  call void @llvm.lifetime.end.p0(i64 12, ptr nonnull %4)
  br i1 %9, label %17, label %10

10:                                               ; preds = %3
  %11 = getelementptr inbounds nuw i8, ptr %0, i64 16
  %12 = load ptr, ptr %11, align 8
  %.not = icmp eq ptr %12, null
  br i1 %.not, label %17, label %13

13:                                               ; preds = %10
  %14 = load ptr, ptr %12, align 8
  %15 = getelementptr inbounds i8, ptr %14, i64 40
  %16 = load ptr, ptr %15, align 8
  call void %16(ptr noundef nonnull align 8 dereferenceable(8) %12, i64 %1, i8 %2) #16
  br label %17

17:                                               ; preds = %13, %10, %3
  ret void
}